MPASM 5.73                          MAIN.ASM   10-14-2018  21:19:24         PAGE  1


LOC  OBJECT CODE     LINE SOURCE TEXT
  VALUE

                      00001         List p=16f887
                      00002         #include <p16f887.inc>
                      00001         LIST
                      00002 
                      00003 ;==========================================================================
                      00004 ; Build date : Mar 21 2017
                      00005 ;  MPASM PIC16F887 processor include
                      00006 ; 
                      00007 ;  (c) Copyright 1999-2017 Microchip Technology, All rights reserved
                      00008 ;==========================================================================
                      00009 
                      00810         LIST
2007   20F4           00003         __CONFIG H'2007', H'3FFC' & H'3FF7' & H'3FFF' & H'3FFF' & H'3FFF' & H'3FFF' & H'3CFF' & H'3BFF' 
                            & H'37FF' & H'2FFF' & H'3FFF'
2008   3EFF           00004         __CONFIG H'2008', H'3EFF' & H'3FFF'     
                      00005 
                      00006         
                      00007          
                      00008 ;===============================================================================
                      00009 ;Definicion de las macros para cambiar de bancos
                      00010 BANK0   MACRO
                      00011         BCF STATUS,5
                      00012         BCF STATUS,6
                      00013         ENDM
                      00014 BANK1   MACRO
                      00015         BSF STATUS,5
                      00016         BCF STATUS,6
                      00017         ENDM
                      00018 BANK2   MACRO
                      00019         BCF STATUS,5
                      00020         BSF STATUS,6
                      00021         ENDM
                      00022 BANK3   MACRO
                      00023         BSF STATUS,5
                      00024         BSF STATUS,6
                      00025         ENDM
                      00026         
  00000020            00027 CONTA_2  EQU 0x20
  00000021            00028 CONTA_1  EQU 0x21
  00000022            00029 BIT      EQU 0x22
  00000023            00030 TECLA    EQU 0x23
  00000024            00031 LAST_TECLA EQU 0x24
  00000025            00032 RESPUESTA EQU 0x25
  00000026            00033 CORRECTO EQU 0x26
  00000027            00034 CONT_WIN EQU 0x27
                      00035         ORG H'0'
0000   2???           00036         GOTO INICIO
                      00037 
0001                  00038 CONVERT_HEX
0001   0782           00039         ADDWF PCL,F
0002   3401 3402 3403 00040         DT .1,  .2, .3, .4, .5
       3404 3405 
0007   3406 3407 3408 00041         DT .6,  .7, .8, .9,.10
MPASM 5.73                          MAIN.ASM   10-14-2018  21:19:24         PAGE  2


LOC  OBJECT CODE     LINE SOURCE TEXT
  VALUE

       3409 340A 
000C   340B 340C 340D 00042         DT .11,.12,.13,.14,.15
       340E 340F 
0011   3410 3411 3412 00043         DT .16,.17,.18,.19,.20
       3413 3414 
0016   3415 3416 3417 00044         DT .21,.22,.23,.24,.25
       3418 3419 
001B                  00045 END_CONVERT_HEX
                      00046         
001B                  00047 RESPUESTAS_1 
001B   0782           00048         ADDWF PCL,F
001C   3401 3407 3417 00049         DT .1,.7,.23,.14,.25
       340E 3419 
0021   3415 3411 3403 00050         DT .21,.17,.3,.24,.10
       3418 340A 
0026   3410 3416 3403 00051         DT .16,.22,.3,.9,.5
       3409 3405 
002B   3410 3416 3403 00052         DT .16,.22,.3,.9,.5
       3409 3405 
0030   3410 3416 3403 00053         DT .16,.22,.3,.9,.5
       3409 3405 
0035                  00054 END_RESPUESTAS_1
                      00055         
0035                  00056 RETARDO_20MS
                      00057         BANK0
0035   1283               M         BCF STATUS,5
0036   1303               M         BCF STATUS,6
0037   3014           00058         MOVLW .20
0038   00A0           00059         MOVWF CONTA_2
0039   30FA           00060         MOVLW .250
003A   00A1           00061         MOVWF CONTA_1
003B   0000           00062         NOP
003C   0BA1           00063         DECFSZ CONTA_1,F
003D   2???           00064         GOTO $-.2
003E   0BA0           00065         DECFSZ CONTA_2,F
003F   2???           00066         GOTO $-.6
0040   0008           00067         RETURN 
                      00068         
0041                  00069 INICIO
                      00070         BANK3
0041   1683               M         BSF STATUS,5
0042   1703               M         BSF STATUS,6
Message[302]: Register in operand not in bank 0.  Ensure that bank bits are correct.
0043   0188           00071         CLRF ANSEL
Message[302]: Register in operand not in bank 0.  Ensure that bank bits are correct.
0044   0189           00072         CLRF ANSELH
                      00073         BANK1
0045   1683               M         BSF STATUS,5
0046   1303               M         BCF STATUS,6
Message[302]: Register in operand not in bank 0.  Ensure that bank bits are correct.
0047   0188           00074         CLRF TRISD
                      00075         BANK0
0048   1283               M         BCF STATUS,5
MPASM 5.73                          MAIN.ASM   10-14-2018  21:19:24         PAGE  3


LOC  OBJECT CODE     LINE SOURCE TEXT
  VALUE

0049   1303               M         BCF STATUS,6
004A   0186           00076         CLRF PORTB
004B   0187           00077         CLRF PORTC
004C   0185           00078         CLRF PORTA
004D   0188           00079         CLRF PORTD
004E   0189           00080         CLRF PORTE
004F   01A7           00081         CLRF CONT_WIN
0050   2???           00082         CALL TecladoInicializa
                      00083         
0051                  00084 LOOP    
                      00085         ; Fila 1
0051   1807           00086         BTFSC PORTC,0
0052   2???           00087         GOTO LOOP
0053   2???           00088         CALL VALIDATE_ANSWER
0054   1103           00089         BCF STATUS,Z
0055   3001           00090         MOVLW .1
Message[305]: Using default destination of 1 (file).
0056   02A6           00091         SUBWF CORRECTO
0057   1D03           00092         BTFSS STATUS,Z
0058   2???           00093         GOTO LOOP
0059   01A6           00094         CLRF CORRECTO
Message[305]: Using default destination of 1 (file).
005A   0AA7           00095         INCF CONT_WIN
005B   3001           00096         MOVLW B'00000001'
005C   0088           00097         MOVWF PORTD
005D                  00098 LOOP2
                      00099         ; Fila 2
005D   1887           00100         BTFSC PORTC,1
005E   2???           00101         GOTO LOOP2
005F   2???           00102         CALL VALIDATE_ANSWER
0060   1103           00103         BCF STATUS,Z
0061   3001           00104         MOVLW .1
Message[305]: Using default destination of 1 (file).
0062   02A6           00105         SUBWF CORRECTO
0063   1D03           00106         BTFSS STATUS,Z
0064   2???           00107         GOTO LOOP2
0065   01A6           00108         CLRF CORRECTO
Message[305]: Using default destination of 1 (file).
0066   0AA7           00109         INCF CONT_WIN
0067   3003           00110         MOVLW B'00000011'
0068   0088           00111         MOVWF PORTD
                      00112         
0069                  00113 LOOP3
                      00114         ; Fila 3
0069   1907           00115         BTFSC PORTC,2
006A   2???           00116         GOTO LOOP3
006B   2???           00117         CALL VALIDATE_ANSWER
006C   1103           00118         BCF STATUS,Z
006D   3001           00119         MOVLW .1
Message[305]: Using default destination of 1 (file).
006E   02A6           00120         SUBWF CORRECTO
006F   1D03           00121         BTFSS STATUS,Z
0070   2???           00122         GOTO LOOP3
MPASM 5.73                          MAIN.ASM   10-14-2018  21:19:24         PAGE  4


LOC  OBJECT CODE     LINE SOURCE TEXT
  VALUE

0071   01A6           00123         CLRF CORRECTO
Message[305]: Using default destination of 1 (file).
0072   0AA7           00124         INCF CONT_WIN
0073   3007           00125         MOVLW B'00000111'
0074   0088           00126         MOVWF PORTD
                      00127 
0075                  00128 LOOP4
                      00129         ; Fila 4
0075   1987           00130         BTFSC PORTC,3
0076   2???           00131         GOTO LOOP4
0077   2???           00132         CALL VALIDATE_ANSWER
0078   1103           00133         BCF STATUS,Z
0079   3001           00134         MOVLW .1
Message[305]: Using default destination of 1 (file).
007A   02A6           00135         SUBWF CORRECTO
007B   1D03           00136         BTFSS STATUS,Z
007C   2???           00137         GOTO LOOP4
007D   01A6           00138         CLRF CORRECTO
Message[305]: Using default destination of 1 (file).
007E   0AA7           00139         INCF CONT_WIN
007F   300F           00140         MOVLW B'00001111'
0080   0088           00141         MOVWF PORTD     
0081                  00142 LOOP5
                      00143         ; Fila 5
0081   1A07           00144         BTFSC PORTC,4
0082   2???           00145         GOTO LOOP5
0083   2???           00146         CALL VALIDATE_ANSWER
0084   1103           00147         BCF STATUS,Z
0085   3001           00148         MOVLW .1
Message[305]: Using default destination of 1 (file).
0086   02A6           00149         SUBWF CORRECTO
0087   1D03           00150         BTFSS STATUS,Z
0088   2???           00151         GOTO LOOP5
0089   01A6           00152         CLRF CORRECTO
Message[305]: Using default destination of 1 (file).
008A   0AA7           00153         INCF CONT_WIN
008B   301F           00154         MOVLW B'00011111'
008C   0088           00155         MOVWF PORTD
                      00156 
008D                  00157 CLEAR
008D   0188           00158         CLRF PORTD
008E   2???           00159         GOTO LOOP
                      00160         
                      00161 ;==============================================================================
                      00162 ;VALIDA SI LA RESPUESTA ES CORRECTA
008F                  00163 VALIDATE_ANSWER 
008F   2???           00164         CALL READ_HEX
0090   00A5           00165         MOVWF RESPUESTA
0091   2???           00166         CALL Teclado_EsperaDejePulsar
0092   0827           00167         MOVF CONT_WIN,W
0093   2???           00168         CALL RESPUESTAS_1
Message[305]: Using default destination of 1 (file).
0094   02A5           00169         SUBWF RESPUESTA
MPASM 5.73                          MAIN.ASM   10-14-2018  21:19:24         PAGE  5


LOC  OBJECT CODE     LINE SOURCE TEXT
  VALUE

0095   1D03           00170         BTFSS STATUS,Z
0096   0008           00171         RETURN
0097   3001           00172         MOVLW .1
0098   00A6           00173         MOVWF CORRECTO
0099   0008           00174         RETURN
                      00175 ;==============================================================================
                      00176 ;==============================================================================
                      00177 ;LEER EL VALOR PULSADO
009A                  00178 READ_HEX
009A   2???           00179         CALL Teclado_LeeOrdenTecla
009B   1C03           00180         BTFSS STATUS,C
009C   2???           00181         GOTO READ_HEX_END
009D   2???           00182         CALL CONVERT_HEX
009E   1403           00183         BSF STATUS,C
009F                  00184 READ_HEX_END
009F   0008           00185         RETURN
                      00186 ;===============================================================================
                      00187 ;INICIALIZAR EL TECLADO
00A0                  00188 TecladoInicializa
                      00189         BANK1
00A0   1683               M         BSF STATUS,5
00A1   1303               M         BCF STATUS,6
00A2   3000           00190         MOVLW B'00000000'
Message[302]: Register in operand not in bank 0.  Ensure that bank bits are correct.
00A3   0086           00191         MOVWF TRISB
00A4   301F           00192         MOVLW 0x1F
Message[302]: Register in operand not in bank 0.  Ensure that bank bits are correct.
00A5   0087           00193         MOVWF TRISC
                      00194         BANK0
00A6   1283               M         BCF STATUS,5
00A7   1303               M         BCF STATUS,6
00A8   3019           00195         MOVLW .25
00A9   00A4           00196         MOVWF LAST_TECLA
00AA   0008           00197         RETURN
                      00198 ;===============================================================================
                      00199 ;ANTIREBOTE
00AB                  00200 Teclado_EsperaDejePulsar
                      00201         BANK0
00AB   1283               M         BCF STATUS,5
00AC   1303               M         BCF STATUS,6
00AD   301F           00202         MOVLW 0x1F
00AE   0087           00203         MOVWF PORTC
00AF                  00204 Teclado_SigueEsperando
00AF   2???           00205         CALL RETARDO_20MS
00B0   0807           00206         MOVF PORTC,W
00B1   3C1F           00207         SUBLW 0x1F
00B2   1D03           00208         BTFSS STATUS,Z
00B3   2???           00209         GOTO Teclado_SigueEsperando
00B4   0186           00210         CLRF PORTB
00B5   0008           00211         RETURN
                      00212 ;===============================================================================
                      00213 ;SCAN TECLAS
00B6                  00214 Teclado_LeeOrdenTecla
MPASM 5.73                          MAIN.ASM   10-14-2018  21:19:24         PAGE  6


LOC  OBJECT CODE     LINE SOURCE TEXT
  VALUE

                      00215         BANK0
00B6   1283               M         BCF STATUS,5
00B7   1303               M         BCF STATUS,6
00B8   01A3           00216         CLRF TECLA
00B9   30FE           00217         MOVLW B'11111110'
00BA                  00218 CHECK_ROW
00BA   0086           00219         MOVWF PORTB
00BB                  00220 CHECK_COL_1
00BB   1C07           00221         BTFSS PORTC,0
00BC   2???           00222         GOTO SAVE_VALUE
00BD   0AA3           00223         INCF TECLA,F
00BE                  00224 CHECK_COL_2
00BE   1C87           00225         BTFSS PORTC,1
00BF   2???           00226         GOTO SAVE_VALUE
00C0   0AA3           00227         INCF TECLA,F
00C1                  00228 CHECK_COL_3
00C1   1D07           00229         BTFSS PORTC,2
00C2   2???           00230         GOTO SAVE_VALUE
00C3   0AA3           00231         INCF TECLA,F
00C4                  00232 CHECK_COL_4
00C4   1D87           00233         BTFSS PORTC,3
00C5   2???           00234         GOTO SAVE_VALUE
00C6   0AA3           00235         INCF TECLA,F
00C7                  00236 CHECK_COL_5
00C7   1E07           00237         BTFSS PORTC,4
00C8   2???           00238         GOTO SAVE_VALUE
00C9   0AA3           00239         INCF TECLA,F    
00CA                  00240 END_COL
00CA   3024           00241         MOVLW LAST_TECLA
00CB   0223           00242         SUBWF TECLA,W
00CC   1803           00243         BTFSC STATUS,C
00CD   2???           00244         GOTO TECLA_NO_PULSE
00CE   1403           00245         BSF STATUS,C
00CF   0D06           00246         RLF PORTB,W
00D0   2???           00247         GOTO CHECK_ROW
                      00248         
00D1                  00249 TECLA_NO_PULSE
00D1   1003           00250         BCF STATUS,C
00D2   2???           00251         GOTO KEYBOARD_END
00D3                  00252 SAVE_VALUE
00D3   0823           00253         MOVF TECLA,W
00D4   1403           00254         BSF STATUS,C
00D5                  00255 KEYBOARD_END
00D5   0008           00256         RETURN
                      00257         
                      00258         
                      00259         
20F4 3EFF             00260         END
MPASM 5.73                          MAIN.ASM   10-14-2018  21:19:24         PAGE  7


SYMBOL TABLE
  LABEL                             VALUE 

ABDEN                             00000000
ABDOVF                            00000007
ACKDT                             00000005
ACKEN                             00000004
ACKSTAT                           00000006
ADCON0                            0000001F
ADCON1                            0000009F
ADCS0                             00000006
ADCS1                             00000007
ADDEN                             00000003
ADFM                              00000007
ADIE                              00000006
ADIF                              00000006
ADON                              00000000
ADRESH                            0000001E
ADRESL                            0000009E
ANS0                              00000000
ANS1                              00000001
ANS10                             00000002
ANS11                             00000003
ANS12                             00000004
ANS13                             00000005
ANS2                              00000002
ANS3                              00000003
ANS4                              00000004
ANS5                              00000005
ANS6                              00000006
ANS7                              00000007
ANS8                              00000000
ANS9                              00000001
ANSEL                             00000188
ANSELH                            00000189
BANK0                             
BANK1                             
BANK2                             
BANK3                             
BAUDCTL                           00000187
BCLIE                             00000003
BCLIF                             00000003
BF                                00000000
BIT                               00000022
BRG0                              00000000
BRG1                              00000001
BRG10                             00000002
BRG11                             00000003
BRG12                             00000004
BRG13                             00000005
BRG14                             00000006
BRG15                             00000007
BRG16                             00000003
BRG2                              00000002
BRG3                              00000003
BRG4                              00000004
MPASM 5.73                          MAIN.ASM   10-14-2018  21:19:24         PAGE  8


SYMBOL TABLE
  LABEL                             VALUE 

BRG5                              00000005
BRG6                              00000006
BRG7                              00000007
BRG8                              00000000
BRG9                              00000001
BRGH                              00000002
C                                 00000000
C1CH0                             00000000
C1CH1                             00000001
C1IE                              00000005
C1IF                              00000005
C1OE                              00000005
C1ON                              00000007
C1OUT                             00000006
C1POL                             00000004
C1R                               00000002
C1RSEL                            00000005
C1SEN                             00000005
C2CH0                             00000000
C2CH1                             00000001
C2IE                              00000006
C2IF                              00000006
C2OE                              00000005
C2ON                              00000007
C2OUT                             00000006
C2POL                             00000004
C2R                               00000002
C2REN                             00000004
C2RSEL                            00000004
C2SYNC                            00000000
CCP1CON                           00000017
CCP1IE                            00000002
CCP1IF                            00000002
CCP1M0                            00000000
CCP1M1                            00000001
CCP1M2                            00000002
CCP1M3                            00000003
CCP1X                             00000005
CCP1Y                             00000004
CCP2CON                           0000001D
CCP2IE                            00000000
CCP2IF                            00000000
CCP2M0                            00000000
CCP2M1                            00000001
CCP2M2                            00000002
CCP2M3                            00000003
CCP2X                             00000005
CCP2Y                             00000004
CCPR1                             00000015
CCPR1H                            00000016
CCPR1L                            00000015
CCPR2                             0000001B
CCPR2H                            0000001C
MPASM 5.73                          MAIN.ASM   10-14-2018  21:19:24         PAGE  9


SYMBOL TABLE
  LABEL                             VALUE 

CCPR2L                            0000001B
CHECK_COL_1                       000000BB
CHECK_COL_2                       000000BE
CHECK_COL_3                       000000C1
CHECK_COL_4                       000000C4
CHECK_COL_5                       000000C7
CHECK_ROW                         000000BA
CHS0                              00000002
CHS1                              00000003
CHS2                              00000004
CHS3                              00000005
CKE                               00000006
CKP                               00000004
CLEAR                             0000008D
CM1CON0                           00000107
CM2CON0                           00000108
CM2CON1                           00000109
CONTA_1                           00000021
CONTA_2                           00000020
CONT_WIN                          00000027
CONVERT_HEX                       00000001
CORRECTO                          00000026
CREN                              00000004
CSRC                              00000007
D                                 00000005
DATA_ADDRESS                      00000005
DC                                00000001
DC1B0                             00000004
DC1B1                             00000005
DC2B0                             00000004
DC2B1                             00000005
D_A                               00000005
D_NOT_A                           00000005
ECCPAS                            0000009C
ECCPAS0                           00000004
ECCPAS1                           00000005
ECCPAS2                           00000006
ECCPASE                           00000007
EEADR                             0000010D
EEADRH                            0000010F
EECON1                            0000018C
EECON2                            0000018D
EEDAT                             0000010C
EEDATA                            0000010C
EEDATH                            0000010E
EEIE                              00000004
EEIF                              00000004
EEPGD                             00000007
END_COL                           000000CA
END_CONVERT_HEX                   0000001B
END_RESPUESTAS_1                  00000035
F                                 00000001
FERR                              00000002
MPASM 5.73                          MAIN.ASM   10-14-2018  21:19:24         PAGE 10


SYMBOL TABLE
  LABEL                             VALUE 

FSR                               00000004
FVREN                             00000000
GCEN                              00000007
GIE                               00000007
GO                                00000001
GO_DONE                           00000001
GO_NOT_DONE                       00000001
HTS                               00000002
I2C_DATA                          00000005
I2C_READ                          00000002
I2C_START                         00000003
I2C_STOP                          00000004
INDF                              00000000
INICIO                            00000041
INTCON                            0000000B
INTE                              00000004
INTEDG                            00000006
INTF                              00000001
IOCB                              00000096
IOCB0                             00000000
IOCB1                             00000001
IOCB2                             00000002
IOCB3                             00000003
IOCB4                             00000004
IOCB5                             00000005
IOCB6                             00000006
IOCB7                             00000007
IRCF0                             00000004
IRCF1                             00000005
IRCF2                             00000006
IRP                               00000007
KEYBOARD_END                      000000D5
LAST_TECLA                        00000024
LOOP                              00000051
LOOP2                             0000005D
LOOP3                             00000069
LOOP4                             00000075
LOOP5                             00000081
LTS                               00000001
MC1OUT                            00000007
MC2OUT                            00000006
MSK                               00000093
MSK0                              00000000
MSK1                              00000001
MSK2                              00000002
MSK3                              00000003
MSK4                              00000004
MSK5                              00000005
MSK6                              00000006
MSK7                              00000007
NOT_A                             00000005
NOT_ADDRESS                       00000005
NOT_BO                            00000000
MPASM 5.73                          MAIN.ASM   10-14-2018  21:19:24         PAGE 11


SYMBOL TABLE
  LABEL                             VALUE 

NOT_BOR                           00000000
NOT_DONE                          00000001
NOT_PD                            00000003
NOT_POR                           00000001
NOT_RBPU                          00000007
NOT_RC8                           00000006
NOT_T1SYNC                        00000002
NOT_TO                            00000004
NOT_TX8                           00000006
NOT_W                             00000002
NOT_WRITE                         00000002
OERR                              00000001
OPTION_REG                        00000081
OSCCON                            0000008F
OSCTUNE                           00000090
OSFIE                             00000007
OSFIF                             00000007
OSTS                              00000003
P                                 00000004
P1M0                              00000006
P1M1                              00000007
PCL                               00000002
PCLATH                            0000000A
PCON                              0000008E
PDC0                              00000000
PDC1                              00000001
PDC2                              00000002
PDC3                              00000003
PDC4                              00000004
PDC5                              00000005
PDC6                              00000006
PEIE                              00000006
PEN                               00000002
PIE1                              0000008C
PIE2                              0000008D
PIR1                              0000000C
PIR2                              0000000D
PORTA                             00000005
PORTB                             00000006
PORTC                             00000007
PORTD                             00000008
PORTE                             00000009
PR2                               00000092
PRSEN                             00000007
PS0                               00000000
PS1                               00000001
PS2                               00000002
PSA                               00000003
PSSAC0                            00000002
PSSAC1                            00000003
PSSBD0                            00000000
PSSBD1                            00000001
PSTRCON                           0000009D
MPASM 5.73                          MAIN.ASM   10-14-2018  21:19:24         PAGE 12


SYMBOL TABLE
  LABEL                             VALUE 

PULSR                             00000002
PULSS                             00000003
PWM1CON                           0000009B
R                                 00000002
RA0                               00000000
RA1                               00000001
RA2                               00000002
RA3                               00000003
RA4                               00000004
RA5                               00000005
RA6                               00000006
RA7                               00000007
RB0                               00000000
RB1                               00000001
RB2                               00000002
RB3                               00000003
RB4                               00000004
RB5                               00000005
RB6                               00000006
RB7                               00000007
RBIE                              00000003
RBIF                              00000000
RC0                               00000000
RC1                               00000001
RC2                               00000002
RC3                               00000003
RC4                               00000004
RC5                               00000005
RC6                               00000006
RC7                               00000007
RC8_9                             00000006
RC9                               00000006
RCD8                              00000000
RCEN                              00000003
RCIDL                             00000006
RCIE                              00000005
RCIF                              00000005
RCREG                             0000001A
RCSTA                             00000018
RD                                00000000
RD0                               00000000
RD1                               00000001
RD2                               00000002
RD3                               00000003
RD4                               00000004
RD5                               00000005
RD6                               00000006
RD7                               00000007
RE0                               00000000
RE1                               00000001
RE2                               00000002
RE3                               00000003
READ_HEX                          0000009A
MPASM 5.73                          MAIN.ASM   10-14-2018  21:19:24         PAGE 13


SYMBOL TABLE
  LABEL                             VALUE 

READ_HEX_END                      0000009F
READ_WRITE                        00000002
RESPUESTA                         00000025
RESPUESTAS_1                      0000001B
RETARDO_20MS                      00000035
RP0                               00000005
RP1                               00000006
RSEN                              00000001
RX9                               00000006
RX9D                              00000000
R_NOT_W                           00000002
R_W                               00000002
S                                 00000003
SAVE_VALUE                        000000D3
SBOREN                            00000004
SCKP                              00000004
SCS                               00000000
SEN                               00000000
SENDB                             00000003
SMP                               00000007
SPBRG                             00000099
SPBRGH                            0000009A
SPEN                              00000007
SR0                               00000006
SR1                               00000007
SRCON                             00000185
SREN                              00000005
SSPADD                            00000093
SSPBUF                            00000013
SSPCON                            00000014
SSPCON2                           00000091
SSPEN                             00000005
SSPIE                             00000003
SSPIF                             00000003
SSPM0                             00000000
SSPM1                             00000001
SSPM2                             00000002
SSPM3                             00000003
SSPMSK                            00000093
SSPOV                             00000006
SSPSTAT                           00000094
STATUS                            00000003
STRA                              00000000
STRB                              00000001
STRC                              00000002
STRD                              00000003
STRSYNC                           00000004
SWDTEN                            00000000
SYNC                              00000004
T0CS                              00000005
T0IE                              00000005
T0IF                              00000002
T0SE                              00000004
MPASM 5.73                          MAIN.ASM   10-14-2018  21:19:24         PAGE 14


SYMBOL TABLE
  LABEL                             VALUE 

T1CKPS0                           00000004
T1CKPS1                           00000005
T1CON                             00000010
T1GINV                            00000007
T1GIV                             00000007
T1GSS                             00000001
T1INSYNC                          00000002
T1OSCEN                           00000003
T1SYNC                            00000002
T2CKPS0                           00000000
T2CKPS1                           00000001
T2CON                             00000012
TECLA                             00000023
TECLA_NO_PULSE                    000000D1
TMR0                              00000001
TMR0IE                            00000005
TMR0IF                            00000002
TMR1                              0000000E
TMR1CS                            00000001
TMR1GE                            00000006
TMR1H                             0000000F
TMR1IE                            00000000
TMR1IF                            00000000
TMR1L                             0000000E
TMR1ON                            00000000
TMR2                              00000011
TMR2IE                            00000001
TMR2IF                            00000001
TMR2ON                            00000002
TOUTPS0                           00000003
TOUTPS1                           00000004
TOUTPS2                           00000005
TOUTPS3                           00000006
TRISA                             00000085
TRISA0                            00000000
TRISA1                            00000001
TRISA2                            00000002
TRISA3                            00000003
TRISA4                            00000004
TRISA5                            00000005
TRISA6                            00000006
TRISA7                            00000007
TRISB                             00000086
TRISB0                            00000000
TRISB1                            00000001
TRISB2                            00000002
TRISB3                            00000003
TRISB4                            00000004
TRISB5                            00000005
TRISB6                            00000006
TRISB7                            00000007
TRISC                             00000087
TRISC0                            00000000
MPASM 5.73                          MAIN.ASM   10-14-2018  21:19:24         PAGE 15


SYMBOL TABLE
  LABEL                             VALUE 

TRISC1                            00000001
TRISC2                            00000002
TRISC3                            00000003
TRISC4                            00000004
TRISC5                            00000005
TRISC6                            00000006
TRISC7                            00000007
TRISD                             00000088
TRISD0                            00000000
TRISD1                            00000001
TRISD2                            00000002
TRISD3                            00000003
TRISD4                            00000004
TRISD5                            00000005
TRISD6                            00000006
TRISD7                            00000007
TRISE                             00000089
TRISE0                            00000000
TRISE1                            00000001
TRISE2                            00000002
TRISE3                            00000003
TRMT                              00000001
TUN0                              00000000
TUN1                              00000001
TUN2                              00000002
TUN3                              00000003
TUN4                              00000004
TX8_9                             00000006
TX9                               00000006
TX9D                              00000000
TXD8                              00000000
TXEN                              00000005
TXIE                              00000004
TXIF                              00000004
TXREG                             00000019
TXSTA                             00000098
TecladoInicializa                 000000A0
Teclado_EsperaDejePulsar          000000AB
Teclado_LeeOrdenTecla             000000B6
Teclado_SigueEsperando            000000AF
UA                                00000001
ULPWUE                            00000005
ULPWUIE                           00000002
ULPWUIF                           00000002
VALIDATE_ANSWER                   0000008F
VCFG0                             00000004
VCFG1                             00000005
VR0                               00000000
VR1                               00000001
VR2                               00000002
VR3                               00000003
VRCON                             00000097
VREN                              00000007
MPASM 5.73                          MAIN.ASM   10-14-2018  21:19:24         PAGE 16


SYMBOL TABLE
  LABEL                             VALUE 

VROE                              00000006
VRR                               00000005
VRSS                              00000004
W                                 00000000
WCOL                              00000007
WDTCON                            00000105
WDTPS0                            00000001
WDTPS1                            00000002
WDTPS2                            00000003
WDTPS3                            00000004
WPUB                              00000095
WPUB0                             00000000
WPUB1                             00000001
WPUB2                             00000002
WPUB3                             00000003
WPUB4                             00000004
WPUB5                             00000005
WPUB6                             00000006
WPUB7                             00000007
WR                                00000001
WREN                              00000002
WRERR                             00000003
WUE                               00000001
Z                                 00000002
_.org_0_003D                      0000003D
_.org_0_003F                      0000003F
_BOR21V                           00003EFF
_BOR40V                           00003FFF
_BOR4V_BOR21V                     00003EFF
_BOR4V_BOR40V                     00003FFF
_BOREN_NSLEEP                     00003EFF
_BOREN_OFF                        00003CFF
_BOREN_ON                         00003FFF
_BOREN_SBODEN                     00003DFF
_BOR_NSLEEP                       00003EFF
_BOR_OFF                          00003CFF
_BOR_ON                           00003FFF
_BOR_SBODEN                       00003DFF
_CONFIG1                          00002007
_CONFIG2                          00002008
_CPD_OFF                          00003FFF
_CPD_ON                           00003F7F
_CP_OFF                           00003FFF
_CP_ON                            00003FBF
_DEBUG_OFF                        00003FFF
_DEBUG_ON                         00001FFF
_DEVID1                           00002006
_EC_OSC                           00003FFB
_EXTRC                            00003FFF
_EXTRCIO                          00003FFE
_EXTRC_OSC_CLKOUT                 00003FFF
_EXTRC_OSC_NOCLKOUT               00003FFE
_FCMEN_OFF                        000037FF
MPASM 5.73                          MAIN.ASM   10-14-2018  21:19:24         PAGE 17


SYMBOL TABLE
  LABEL                             VALUE 

_FCMEN_ON                         00003FFF
_FOSC_EC                          00003FFB
_FOSC_EXTRC_CLKOUT                00003FFF
_FOSC_EXTRC_NOCLKOUT              00003FFE
_FOSC_HS                          00003FFA
_FOSC_INTRC_CLKOUT                00003FFD
_FOSC_INTRC_NOCLKOUT              00003FFC
_FOSC_LP                          00003FF8
_FOSC_XT                          00003FF9
_HS_OSC                           00003FFA
_IDLOC0                           00002000
_IDLOC1                           00002001
_IDLOC2                           00002002
_IDLOC3                           00002003
_IESO_OFF                         00003BFF
_IESO_ON                          00003FFF
_INTOSC                           00003FFD
_INTOSCIO                         00003FFC
_INTRC_OSC_CLKOUT                 00003FFD
_INTRC_OSC_NOCLKOUT               00003FFC
_LP_OSC                           00003FF8
_LVP_OFF                          00002FFF
_LVP_ON                           00003FFF
_MCLRE_OFF                        00003FDF
_MCLRE_ON                         00003FFF
_PWRTE_OFF                        00003FFF
_PWRTE_ON                         00003FEF
_WDTE_OFF                         00003FF7
_WDTE_ON                          00003FFF
_WDT_OFF                          00003FF7
_WDT_ON                           00003FFF
_WRT_1FOURTH                      00003BFF
_WRT_256                          00003DFF
_WRT_HALF                         000039FF
_WRT_OFF                          00003FFF
_XT_OSC                           00003FF9
__16F887                          00000001

Errors   :     0
Warnings :     0 reported,     0 suppressed
Messages :    16 reported,     0 suppressed

