MPLINK 5.09, LINKER
Linker Map File - Created Fri Oct 26 07:43:04 2018

                                 Section Info
                  Section       Type    Address   Location Size(Bytes)
                ---------  ---------  ---------  ---------  ---------
                   .org_0       code   0x000001    program   0x000002
                   .cinit    romdata   0x000002    program   0x000004
                   .org_1       code   0x000004    program   0x0001b2
.config_2007_BUILD/DEFAULT/PRODUCTION/MAIN.O       code   0x002007    program   0x000002
.config_2008_BUILD/DEFAULT/PRODUCTION/MAIN.O       code   0x002008    program   0x000002



                              Program Memory Usage 
                               Start         End      
                           ---------   ---------      
                            0x000001    0x0000dc      
                            0x002007    0x002008      
            222 out of 8455 program addresses used, program memory utilization is 2%



                              Symbols - Sorted by Name
                     Name    Address   Location    Storage File                     
                ---------  ---------  ---------  --------- ---------                
              CHECK_COL_1   0x00006d    program     static /home/mipc/MPLABXProjects/Gitwilson.X/main.asm
              CHECK_COL_2   0x000070    program     static /home/mipc/MPLABXProjects/Gitwilson.X/main.asm
              CHECK_COL_3   0x000073    program     static /home/mipc/MPLABXProjects/Gitwilson.X/main.asm
              CHECK_COL_4   0x000076    program     static /home/mipc/MPLABXProjects/Gitwilson.X/main.asm
              CHECK_COL_5   0x000079    program     static /home/mipc/MPLABXProjects/Gitwilson.X/main.asm
                CHECK_ROW   0x00006c    program     static /home/mipc/MPLABXProjects/Gitwilson.X/main.asm
                   CNTCOL   0x0000d4    program     static /home/mipc/MPLABXProjects/Gitwilson.X/main.asm
                   CNTFIL   0x0000cb    program     static /home/mipc/MPLABXProjects/Gitwilson.X/main.asm
              CONVERT_HEX   0x000004    program     static /home/mipc/MPLABXProjects/Gitwilson.X/main.asm
                 ENCENDER   0x000056    program     static /home/mipc/MPLABXProjects/Gitwilson.X/main.asm
                  END_COL   0x00007c    program     static /home/mipc/MPLABXProjects/Gitwilson.X/main.asm
          END_CONVERT_HEX   0x00001e    program     static /home/mipc/MPLABXProjects/Gitwilson.X/main.asm
         END_RESPUESTAS_1   0x000038    program     static /home/mipc/MPLABXProjects/Gitwilson.X/main.asm
                   INICIA   0x0000c0    program     static /home/mipc/MPLABXProjects/Gitwilson.X/main.asm
                   INICIO   0x00009d    program     static /home/mipc/MPLABXProjects/Gitwilson.X/main.asm
                  PROXIMO   0x0000c6    program     static /home/mipc/MPLABXProjects/Gitwilson.X/main.asm
                 READ_HEX   0x00005b    program     static /home/mipc/MPLABXProjects/Gitwilson.X/main.asm
             READ_HEX_END   0x00005f    program     static /home/mipc/MPLABXProjects/Gitwilson.X/main.asm
             RESPUESTAS_1   0x00001e    program     static /home/mipc/MPLABXProjects/Gitwilson.X/main.asm
             RETARDO_20MS   0x000038    program     static /home/mipc/MPLABXProjects/Gitwilson.X/main.asm
               SAVE_VALUE   0x000087    program     static /home/mipc/MPLABXProjects/Gitwilson.X/main.asm
                 SISTPREG   0x0000c5    program     static /home/mipc/MPLABXProjects/Gitwilson.X/main.asm
                     SUM1   0x00008e    program     static /home/mipc/MPLABXProjects/Gitwilson.X/main.asm
           TECLA_NO_PULSE   0x000083    program     static /home/mipc/MPLABXProjects/Gitwilson.X/main.asm
 Teclado_EsperaDejePulsar   0x000060    program     static /home/mipc/MPLABXProjects/Gitwilson.X/main.asm
    Teclado_LeeOrdenTecla   0x000067    program     static /home/mipc/MPLABXProjects/Gitwilson.X/main.asm
   Teclado_SigueEsperando   0x000060    program     static /home/mipc/MPLABXProjects/Gitwilson.X/main.asm
          VALIDATE_ANSWER   0x000088    program     static /home/mipc/MPLABXProjects/Gitwilson.X/main.asm
                 VERIFICA   0x00004e    program     static /home/mipc/MPLABXProjects/Gitwilson.X/main.asm
                VERIFICA1   0x000045    program     static /home/mipc/MPLABXProjects/Gitwilson.X/main.asm
             _.org_1_0041   0x000041    program     static /home/mipc/MPLABXProjects/Gitwilson.X/main.asm
             _.org_1_0043   0x000043    program     static /home/mipc/MPLABXProjects/Gitwilson.X/main.asm



                              Symbols - Sorted by Address
                     Name    Address   Location    Storage File                     
                ---------  ---------  ---------  --------- ---------                
              CONVERT_HEX   0x000004    program     static /home/mipc/MPLABXProjects/Gitwilson.X/main.asm
             RESPUESTAS_1   0x00001e    program     static /home/mipc/MPLABXProjects/Gitwilson.X/main.asm
          END_CONVERT_HEX   0x00001e    program     static /home/mipc/MPLABXProjects/Gitwilson.X/main.asm
             RETARDO_20MS   0x000038    program     static /home/mipc/MPLABXProjects/Gitwilson.X/main.asm
         END_RESPUESTAS_1   0x000038    program     static /home/mipc/MPLABXProjects/Gitwilson.X/main.asm
             _.org_1_0041   0x000041    program     static /home/mipc/MPLABXProjects/Gitwilson.X/main.asm
             _.org_1_0043   0x000043    program     static /home/mipc/MPLABXProjects/Gitwilson.X/main.asm
                VERIFICA1   0x000045    program     static /home/mipc/MPLABXProjects/Gitwilson.X/main.asm
                 VERIFICA   0x00004e    program     static /home/mipc/MPLABXProjects/Gitwilson.X/main.asm
                 ENCENDER   0x000056    program     static /home/mipc/MPLABXProjects/Gitwilson.X/main.asm
                 READ_HEX   0x00005b    program     static /home/mipc/MPLABXProjects/Gitwilson.X/main.asm
             READ_HEX_END   0x00005f    program     static /home/mipc/MPLABXProjects/Gitwilson.X/main.asm
   Teclado_SigueEsperando   0x000060    program     static /home/mipc/MPLABXProjects/Gitwilson.X/main.asm
 Teclado_EsperaDejePulsar   0x000060    program     static /home/mipc/MPLABXProjects/Gitwilson.X/main.asm
    Teclado_LeeOrdenTecla   0x000067    program     static /home/mipc/MPLABXProjects/Gitwilson.X/main.asm
                CHECK_ROW   0x00006c    program     static /home/mipc/MPLABXProjects/Gitwilson.X/main.asm
              CHECK_COL_1   0x00006d    program     static /home/mipc/MPLABXProjects/Gitwilson.X/main.asm
              CHECK_COL_2   0x000070    program     static /home/mipc/MPLABXProjects/Gitwilson.X/main.asm
              CHECK_COL_3   0x000073    program     static /home/mipc/MPLABXProjects/Gitwilson.X/main.asm
              CHECK_COL_4   0x000076    program     static /home/mipc/MPLABXProjects/Gitwilson.X/main.asm
              CHECK_COL_5   0x000079    program     static /home/mipc/MPLABXProjects/Gitwilson.X/main.asm
                  END_COL   0x00007c    program     static /home/mipc/MPLABXProjects/Gitwilson.X/main.asm
           TECLA_NO_PULSE   0x000083    program     static /home/mipc/MPLABXProjects/Gitwilson.X/main.asm
               SAVE_VALUE   0x000087    program     static /home/mipc/MPLABXProjects/Gitwilson.X/main.asm
          VALIDATE_ANSWER   0x000088    program     static /home/mipc/MPLABXProjects/Gitwilson.X/main.asm
                     SUM1   0x00008e    program     static /home/mipc/MPLABXProjects/Gitwilson.X/main.asm
                   INICIO   0x00009d    program     static /home/mipc/MPLABXProjects/Gitwilson.X/main.asm
                   INICIA   0x0000c0    program     static /home/mipc/MPLABXProjects/Gitwilson.X/main.asm
                 SISTPREG   0x0000c5    program     static /home/mipc/MPLABXProjects/Gitwilson.X/main.asm
                  PROXIMO   0x0000c6    program     static /home/mipc/MPLABXProjects/Gitwilson.X/main.asm
                   CNTFIL   0x0000cb    program     static /home/mipc/MPLABXProjects/Gitwilson.X/main.asm
                   CNTCOL   0x0000d4    program     static /home/mipc/MPLABXProjects/Gitwilson.X/main.asm


